; Function Attrs: mustprogress uwtable
define void @_ZNK6casadi3Low10ad_forwardERKSt6vectorIS1_INS_2MXESaIS2_EESaIS4_EERS6_(ptr nocapture nonnull readnone align 8 %0, ptr nocapture nonnull readnone align 8 %1, ptr nocapture noundef nonnull readonly align 8 dereferenceable(24) %2) unnamed_addr #3 align 2 personality ptr @__gxx_personality_v0 {
  %4 = alloca %"class.casadi::MX", align 8
  %5 = getelementptr inbounds i8, ptr %2, i64 8
  %6 = load ptr, ptr %5, align 8
  %7 = load ptr, ptr %2, align 8
  %.not = icmp eq ptr %6, %7
  br i1 %.not, label %._crit_edge, label %.lr.ph

.lr.ph:                                           ; preds = %3, %_ZN6casadi2MXaSERKS0_.exit
  %.06 = phi i64 [ %12, %_ZN6casadi2MXaSERKS0_.exit ], [ 0, %3 ]
  call void @_ZN6casadi2MXC1Ed(ptr noundef nonnull align 8 dereferenceable(8) %4, double noundef 0.000000e+00)
  %8 = load ptr, ptr %2, align 8
  %9 = getelementptr inbounds %"class.std::vector", ptr %8, i64 %.06
  %10 = load ptr, ptr %9, align 8
  %11 = invoke noundef nonnull align 8 dereferenceable(8) ptr @_ZN6casadi12SharedObjectaSERKS0_(ptr noundef nonnull align 8 dereferenceable(8) %10, ptr noundef nonnull align 8 dereferenceable(8) %4)
          to label %_ZN6casadi2MXaSERKS0_.exit unwind label %20

_ZN6casadi2MXaSERKS0_.exit:                       ; preds = %.lr.ph
  call void @_ZN6casadi2MXD1Ev(ptr noundef nonnull align 8 dereferenceable(8) %4) #15
  %12 = add nuw nsw i64 %.06, 1
  %13 = load ptr, ptr %5, align 8
  %14 = load ptr, ptr %2, align 8
  %15 = ptrtoint ptr %13 to i64
  %16 = ptrtoint ptr %14 to i64
  %17 = sub i64 %15, %16
  %18 = sdiv exact i64 %17, 24
  %19 = icmp ult i64 %12, %18
  br i1 %19, label %.lr.ph, label %._crit_edge, !llvm.loop !25

20:                                               ; preds = %.lr.ph
  %21 = landingpad { ptr, i32 }
          cleanup
  call void @_ZN6casadi2MXD1Ev(ptr noundef nonnull align 8 dereferenceable(8) %4) #15
  resume { ptr, i32 } %21

._crit_edge:                                      ; preds = %_ZN6casadi2MXaSERKS0_.exit, %3
  ret void
}